(insga.CNN_Gene
Genotype
p1
(dp2
S'poolingProb'
p3
F0.5
sS'genotype'
p4
(lp5
(insga.CNN_Gene
InputGene
p6
(dp7
S'prev_gene'
p8
NsS'next_gene'
p9
(insga.CNN_Gene
Conv2DGene
p10
(dp11
g9
(insga.CNN_Gene
Conv2DGene
p12
(dp13
g9
(insga.CNN_Gene
Pool2DGene
p14
(dp15
g9
(insga.CNN_Gene
FullyConnectedGene
p16
(dp17
g9
(insga.CNN_Gene
FullyConnectedGene
p18
(dp19
g9
(insga.CNN_Gene
FullyConnectedGene
p20
(dp21
g9
(insga.CNN_Gene
OutputGene
p22
(dp23
g8
g20
sg9
NsS'type'
p24
S'OUTPUT'
p25
sS'tensor'
p26
NsS'dimension'
p27
I10
sbsg26
NsS'activation'
p28
Nsg8
g18
sg24
S'FULLYCONNECTED'
p29
sg27
I857
sS'size'
p30
I857
sbsg26
Nsg28
Nsg8
g16
sg24
g29
sg27
I91
sg30
I91
sbsg26
Nsg28
Nsg8
g14
sg24
g29
sg27
I865
sg30
I865
sbsg26
NsS'stride'
p31
(I1
I1
tp32
sg8
g12
sg24
S'POOL2D'
p33
sg27
(I1
I1
I62
tp34
sS'pool_shape'
p35
(I2
I2
tp36
sbsg26
Nsg28
Nsg31
(I3
I1
tp37
sS'kernel_shape'
p38
(I15
I2
tp39
sg8
g10
sS'num_kernels'
p40
I62
sg24
S'CONV2D'
p41
sg27
(I2
I2
I62
tp42
sbsg26
Nsg28
Nsg31
(I1
I9
tp43
sg38
(I10
I10
tp44
sg8
g6
sg40
I67
sg24
g41
sg27
(I19
I3
I67
tp45
sbsg24
S'INPUT'
p46
sg26
Nsg27
(I28
I28
I1
tp47
sbag10
ag12
ag14
ag16
ag18
ag20
ag22
asS'output_size'
p48
I10
sS'fullConnectionProb'
p49
F0.5
sS'input_shape'
p50
g47
sS'_Genotype__generatePoolGene'
p51
cnsga.CNN_Gene
generate2DPoolGene
p52
sS'_Genotype__generateConvGene'
p53
cnsga.CNN_Gene
generate2DConvGene
p54
sS'convolutionProb'
p55
F0.5
sS'is2D'
p56
I01
sb.