(insga.CNN_Gene
Genotype
p1
(dp2
S'poolingProb'
p3
F0.5
sS'genotype'
p4
(lp5
(insga.CNN_Gene
InputGene
p6
(dp7
S'prev_gene'
p8
NsS'next_gene'
p9
(insga.CNN_Gene
Conv2DGene
p10
(dp11
g9
(insga.CNN_Gene
Conv2DGene
p12
(dp13
g9
(insga.CNN_Gene
Pool2DGene
p14
(dp15
g9
(insga.CNN_Gene
Conv2DGene
p16
(dp17
g9
(insga.CNN_Gene
FullyConnectedGene
p18
(dp19
g9
(insga.CNN_Gene
FullyConnectedGene
p20
(dp21
g9
(insga.CNN_Gene
FullyConnectedGene
p22
(dp23
g9
(insga.CNN_Gene
FullyConnectedGene
p24
(dp25
g9
(insga.CNN_Gene
FullyConnectedGene
p26
(dp27
g9
(insga.CNN_Gene
FullyConnectedGene
p28
(dp29
g9
(insga.CNN_Gene
FullyConnectedGene
p30
(dp31
g9
(insga.CNN_Gene
OutputGene
p32
(dp33
g8
g30
sg9
NsS'type'
p34
S'OUTPUT'
p35
sS'tensor'
p36
NsS'dimension'
p37
I10
sbsg36
NsS'activation'
p38
Nsg8
g28
sg34
S'FULLYCONNECTED'
p39
sg37
I319
sS'size'
p40
I319
sbsg36
Nsg38
Nsg8
g26
sg34
g39
sg37
I884
sg40
I884
sbsg36
Nsg38
Nsg8
g24
sg34
g39
sg37
I10
sg40
I10
sbsg36
Nsg38
Nsg8
g22
sg34
g39
sg37
I831
sg40
I831
sbsg36
Nsg38
Nsg8
g20
sg34
g39
sg37
I340
sg40
I340
sbsg36
Nsg38
Nsg8
g18
sg34
g39
sg37
I972
sg40
I972
sbsg36
Nsg38
Nsg8
g16
sg34
g39
sg37
I859
sg40
I859
sbsg36
Nsg38
NsS'stride'
p41
(I2
I1
tp42
sS'kernel_shape'
p43
(I2
I1
tp44
sg8
g14
sS'num_kernels'
p45
I23
sg34
S'CONV2D'
p46
sg37
(I1
I1
I23
tp47
sbsg36
Nsg41
(I1
I2
tp48
sg8
g12
sg34
S'POOL2D'
p49
sg37
(I2
I1
I32
tp50
sS'pool_shape'
p51
(I2
I2
tp52
sbsg36
Nsg38
Nsg41
(I1
I2
tp53
sg43
(I4
I5
tp54
sg8
g10
sg45
I32
sg34
g46
sg37
(I3
I3
I32
tp55
sbsg36
Nsg38
Nsg41
(I3
I2
tp56
sg43
(I11
I9
tp57
sg8
g6
sg45
I93
sg34
g46
sg37
(I6
I10
I93
tp58
sbsg34
S'INPUT'
p59
sg36
Nsg37
(I28
I28
I1
tp60
sbag10
ag12
ag14
ag16
ag18
ag20
ag22
ag24
ag26
ag28
ag30
ag32
asS'output_size'
p61
I10
sS'fullConnectionProb'
p62
F0.5
sS'input_shape'
p63
g60
sS'_Genotype__generatePoolGene'
p64
cnsga.CNN_Gene
generate2DPoolGene
p65
sS'_Genotype__generateConvGene'
p66
cnsga.CNN_Gene
generate2DConvGene
p67
sS'convolutionProb'
p68
F0.5
sS'is2D'
p69
I01
sb.