(insga.CNN_Gene
Genotype
p1
(dp2
S'poolingProb'
p3
F0.5
sS'genotype'
p4
(lp5
(insga.CNN_Gene
InputGene
p6
(dp7
S'prev_gene'
p8
NsS'next_gene'
p9
(insga.CNN_Gene
Conv2DGene
p10
(dp11
g9
(insga.CNN_Gene
Pool2DGene
p12
(dp13
g9
(insga.CNN_Gene
OutputGene
p14
(dp15
g8
g12
sg9
NsS'type'
p16
S'OUTPUT'
p17
sS'tensor'
p18
NsS'dimension'
p19
I10
sbsg18
NsS'stride'
p20
(I2
I1
tp21
sg8
g10
sg16
S'POOL2D'
p22
sg19
(I1
I1
I62
tp23
sS'pool_shape'
p24
(I2
I2
tp25
sbsg18
NsS'activation'
p26
Nsg20
(I6
I13
tp27
sS'kernel_shape'
p28
(I19
I15
tp29
sg8
g6
sS'num_kernels'
p30
I62
sg16
S'CONV2D'
p31
sg19
(I2
I2
I62
tp32
sbsg16
S'INPUT'
p33
sg18
Nsg19
(I28
I28
I1
tp34
sbag10
ag12
ag14
asS'output_size'
p35
I10
sS'fullConnectionProb'
p36
F0.5
sS'input_shape'
p37
g34
sS'_Genotype__generatePoolGene'
p38
cnsga.CNN_Gene
generate2DPoolGene
p39
sS'_Genotype__generateConvGene'
p40
cnsga.CNN_Gene
generate2DConvGene
p41
sS'convolutionProb'
p42
F0.5
sS'is2D'
p43
I01
sb.