(insga.CNN_Gene
Genotype
p1
(dp2
S'poolingProb'
p3
F0.5
sS'genotype'
p4
(lp5
(insga.CNN_Gene
InputGene
p6
(dp7
S'prev_gene'
p8
NsS'next_gene'
p9
(insga.CNN_Gene
Conv2DGene
p10
(dp11
g9
(insga.CNN_Gene
FullyConnectedGene
p12
(dp13
g9
(insga.CNN_Gene
FullyConnectedGene
p14
(dp15
g9
(insga.CNN_Gene
FullyConnectedGene
p16
(dp17
g9
(insga.CNN_Gene
OutputGene
p18
(dp19
g8
g16
sg9
NsS'type'
p20
S'OUTPUT'
p21
sS'tensor'
p22
NsS'dimension'
p23
I10
sbsg22
NsS'activation'
p24
Nsg8
g14
sg20
S'FULLYCONNECTED'
p25
sg23
I886
sS'size'
p26
I886
sbsg22
Nsg24
Nsg8
g12
sg20
g25
sg23
I100
sg26
I100
sbsg22
Nsg24
Nsg8
g10
sg20
g25
sg23
I760
sg26
I760
sbsg22
Nsg24
NsS'stride'
p27
(I5
I12
tp28
sS'kernel_shape'
p29
(I17
I18
tp30
sg8
g6
sS'num_kernels'
p31
I8
sg20
S'CONV2D'
p32
sg23
(I3
I1
I8
tp33
sbsg20
S'INPUT'
p34
sg22
Nsg23
(I28
I28
I1
tp35
sbag10
ag12
ag14
ag16
ag18
asS'output_size'
p36
I10
sS'fullConnectionProb'
p37
F0.5
sS'input_shape'
p38
g35
sS'_Genotype__generatePoolGene'
p39
cnsga.CNN_Gene
generate2DPoolGene
p40
sS'_Genotype__generateConvGene'
p41
cnsga.CNN_Gene
generate2DConvGene
p42
sS'convolutionProb'
p43
F0.5
sS'is2D'
p44
I01
sb.