(insga.CNN_Gene
Genotype
p1
(dp2
S'poolingProb'
p3
F0.5
sS'genotype'
p4
(lp5
(insga.CNN_Gene
InputGene
p6
(dp7
S'prev_gene'
p8
NsS'next_gene'
p9
(insga.CNN_Gene
Conv2DGene
p10
(dp11
g9
(insga.CNN_Gene
FullyConnectedGene
p12
(dp13
g9
(insga.CNN_Gene
OutputGene
p14
(dp15
g8
g12
sg9
NsS'type'
p16
S'OUTPUT'
p17
sS'tensor'
p18
NsS'dimension'
p19
I10
sbsg18
NsS'activation'
p20
Nsg8
g10
sg16
S'FULLYCONNECTED'
p21
sg19
I290
sS'size'
p22
I290
sbsg18
Nsg20
NsS'stride'
p23
(I1
I4
tp24
sS'kernel_shape'
p25
(I1
I16
tp26
sg8
g6
sS'num_kernels'
p27
I25
sg16
S'CONV2D'
p28
sg19
(I28
I4
I25
tp29
sbsg16
S'INPUT'
p30
sg18
Nsg19
(I28
I28
I1
tp31
sbag10
ag12
ag14
asS'output_size'
p32
I10
sS'fullConnectionProb'
p33
F0.5
sS'input_shape'
p34
g31
sS'_Genotype__generatePoolGene'
p35
cnsga.CNN_Gene
generate2DPoolGene
p36
sS'_Genotype__generateConvGene'
p37
cnsga.CNN_Gene
generate2DConvGene
p38
sS'convolutionProb'
p39
F0.5
sS'is2D'
p40
I01
sb.