(insga.CNN_Gene
Genotype
p1
(dp2
S'poolingProb'
p3
F0.5
sS'genotype'
p4
(lp5
(insga.CNN_Gene
InputGene
p6
(dp7
S'prev_gene'
p8
NsS'next_gene'
p9
(insga.CNN_Gene
Pool2DGene
p10
(dp11
g9
(insga.CNN_Gene
Pool2DGene
p12
(dp13
g9
(insga.CNN_Gene
Conv2DGene
p14
(dp15
g9
(insga.CNN_Gene
OutputGene
p16
(dp17
g8
g14
sg9
NsS'type'
p18
S'OUTPUT'
p19
sS'tensor'
p20
NsS'dimension'
p21
I10
sbsg20
NsS'activation'
p22
NsS'stride'
p23
(I4
I2
tp24
sS'kernel_shape'
p25
(I5
I5
tp26
sg8
g12
sS'num_kernels'
p27
I13
sg18
S'CONV2D'
p28
sg21
(I1
I1
I13
tp29
sbsg20
Nsg23
(I1
I1
tp30
sg8
g10
sg18
S'POOL2D'
p31
sg21
(I6
I5
I1
tp32
sS'pool_shape'
p33
(I2
I20
tp34
sbsg20
Nsg23
(I1
I1
tp35
sg8
g6
sg18
g31
sg21
(I7
I24
I1
tp36
sg33
(I22
I5
tp37
sbsg18
S'INPUT'
p38
sg20
Nsg21
(I28
I28
I1
tp39
sbag10
ag12
ag14
ag16
asS'output_size'
p40
I10
sS'fullConnectionProb'
p41
F0.5
sS'input_shape'
p42
g39
sS'_Genotype__generatePoolGene'
p43
cnsga.CNN_Gene
generate2DPoolGene
p44
sS'_Genotype__generateConvGene'
p45
cnsga.CNN_Gene
generate2DConvGene
p46
sS'convolutionProb'
p47
F0.5
sS'is2D'
p48
I01
sb.