(insga.CNN_Gene
Genotype
p1
(dp2
S'poolingProb'
p3
F0.5
sS'genotype'
p4
(lp5
(insga.CNN_Gene
InputGene
p6
(dp7
S'prev_gene'
p8
NsS'next_gene'
p9
(insga.CNN_Gene
Conv2DGene
p10
(dp11
g9
(insga.CNN_Gene
Pool2DGene
p12
(dp13
g9
(insga.CNN_Gene
Conv2DGene
p14
(dp15
g9
(insga.CNN_Gene
Conv2DGene
p16
(dp17
g9
(insga.CNN_Gene
Conv2DGene
p18
(dp19
g9
(insga.CNN_Gene
OutputGene
p20
(dp21
g8
g18
sg9
NsS'type'
p22
S'OUTPUT'
p23
sS'tensor'
p24
NsS'dimension'
p25
I10
sbsg24
NsS'activation'
p26
NsS'stride'
p27
(I1
I1
tp28
sS'kernel_shape'
p29
(I1
I1
tp30
sg8
g16
sS'num_kernels'
p31
I33
sg22
S'CONV2D'
p32
sg25
(I1
I1
I33
tp33
sbsg24
Nsg26
Nsg27
(I1
I1
tp34
sg29
(I1
I1
tp35
sg8
g14
sg31
I41
sg22
g32
sg25
(I1
I1
I41
tp36
sbsg24
Nsg26
Nsg27
(I2
I1
tp37
sg29
(I2
I1
tp38
sg8
g12
sg31
I88
sg22
g32
sg25
(I1
I1
I88
tp39
sbsg24
Nsg27
(I2
I2
tp40
sg8
g10
sg22
S'POOL2D'
p41
sg25
(I2
I1
I133
tp42
sS'pool_shape'
p43
(I2
I2
tp44
sbsg24
Nsg26
Nsg27
(I4
I4
tp45
sg29
(I9
I23
tp46
sg8
g6
sg31
I133
sg22
g32
sg25
(I5
I2
I133
tp47
sbsg22
S'INPUT'
p48
sg24
Nsg25
(I28
I28
I1
tp49
sbag10
ag12
ag14
ag16
ag18
ag20
asS'output_size'
p50
I10
sS'fullConnectionProb'
p51
F0.5
sS'input_shape'
p52
g49
sS'_Genotype__generatePoolGene'
p53
cnsga.CNN_Gene
generate2DPoolGene
p54
sS'_Genotype__generateConvGene'
p55
cnsga.CNN_Gene
generate2DConvGene
p56
sS'convolutionProb'
p57
F0.5
sS'is2D'
p58
I01
sb.