(insga.CNN_Gene
Genotype
p1
(dp2
S'poolingProb'
p3
F0.5
sS'genotype'
p4
(lp5
(insga.CNN_Gene
InputGene
p6
(dp7
S'prev_gene'
p8
NsS'next_gene'
p9
(insga.CNN_Gene
Conv2DGene
p10
(dp11
g9
(insga.CNN_Gene
Pool2DGene
p12
(dp13
g9
(insga.CNN_Gene
Conv2DGene
p14
(dp15
g9
(insga.CNN_Gene
Conv2DGene
p16
(dp17
g9
(insga.CNN_Gene
OutputGene
p18
(dp19
g8
g16
sg9
NsS'type'
p20
S'OUTPUT'
p21
sS'tensor'
p22
NsS'dimension'
p23
I10
sbsg22
NsS'activation'
p24
NsS'stride'
p25
(I1
I1
tp26
sS'kernel_shape'
p27
(I1
I1
tp28
sg8
g14
sS'num_kernels'
p29
I33
sg20
S'CONV2D'
p30
sg23
(I2
I1
I33
tp31
sbsg22
Nsg24
Nsg25
(I1
I1
tp32
sg27
(I1
I1
tp33
sg8
g12
sg29
I41
sg20
g30
sg23
(I2
I1
I41
tp34
sbsg22
Nsg25
(I2
I2
tp35
sg8
g10
sg20
S'POOL2D'
p36
sg23
(I2
I1
I99
tp37
sS'pool_shape'
p38
(I2
I2
tp39
sbsg22
Nsg24
Nsg25
(I4
I4
tp40
sg27
(I9
I23
tp41
sg8
g6
sg29
I99
sg20
g30
sg23
(I5
I2
I99
tp42
sbsg20
S'INPUT'
p43
sg22
Nsg23
(I28
I28
I1
tp44
sbag10
ag12
ag14
ag16
ag18
asS'output_size'
p45
I10
sS'fullConnectionProb'
p46
F0.5
sS'input_shape'
p47
g44
sS'_Genotype__generatePoolGene'
p48
cnsga.CNN_Gene
generate2DPoolGene
p49
sS'_Genotype__generateConvGene'
p50
cnsga.CNN_Gene
generate2DConvGene
p51
sS'convolutionProb'
p52
F0.5
sS'is2D'
p53
I01
sb.