(insga.CNN_Gene
Genotype
p1
(dp2
S'poolingProb'
p3
F0.5
sS'genotype'
p4
(lp5
(insga.CNN_Gene
InputGene
p6
(dp7
S'prev_gene'
p8
NsS'next_gene'
p9
(insga.CNN_Gene
FullyConnectedGene
p10
(dp11
g9
(insga.CNN_Gene
FullyConnectedGene
p12
(dp13
g9
(insga.CNN_Gene
FullyConnectedGene
p14
(dp15
g9
(insga.CNN_Gene
OutputGene
p16
(dp17
g8
g14
sg9
NsS'type'
p18
S'OUTPUT'
p19
sS'tensor'
p20
NsS'dimension'
p21
I10
sbsg20
NsS'activation'
p22
Nsg8
g12
sg18
S'FULLYCONNECTED'
p23
sg21
I262
sS'size'
p24
I262
sbsg20
Nsg22
Nsg8
g10
sg18
g23
sg21
I93
sg24
I93
sbsg20
Nsg22
Nsg8
g6
sg18
g23
sg21
I996
sg24
I996
sbsg18
S'INPUT'
p25
sg20
Nsg21
(I28
I28
I1
tp26
sbag10
ag12
ag14
ag16
asS'output_size'
p27
I10
sS'fullConnectionProb'
p28
F0.5
sS'input_shape'
p29
g26
sS'_Genotype__generatePoolGene'
p30
cnsga.CNN_Gene
generate2DPoolGene
p31
sS'_Genotype__generateConvGene'
p32
cnsga.CNN_Gene
generate2DConvGene
p33
sS'convolutionProb'
p34
F0.5
sS'is2D'
p35
I01
sb.