(insga.CNN_Gene
Genotype
p1
(dp2
S'poolingProb'
p3
F0.5
sS'genotype'
p4
(lp5
(insga.CNN_Gene
InputGene
p6
(dp7
S'prev_gene'
p8
NsS'next_gene'
p9
(insga.CNN_Gene
Conv2DGene
p10
(dp11
g9
(insga.CNN_Gene
Pool2DGene
p12
(dp13
g9
(insga.CNN_Gene
Conv2DGene
p14
(dp15
g9
(insga.CNN_Gene
Conv2DGene
p16
(dp17
g9
(insga.CNN_Gene
FullyConnectedGene
p18
(dp19
g9
(insga.CNN_Gene
FullyConnectedGene
p20
(dp21
g9
(insga.CNN_Gene
OutputGene
p22
(dp23
g8
g20
sg9
NsS'type'
p24
S'OUTPUT'
p25
sS'tensor'
p26
NsS'dimension'
p27
I10
sbsg26
NsS'activation'
p28
Nsg8
g18
sg24
S'FULLYCONNECTED'
p29
sg27
I756
sS'size'
p30
I756
sbsg26
Nsg28
Nsg8
g16
sg24
g29
sg27
I981
sg30
I981
sbsg26
Nsg28
NsS'stride'
p31
(I1
I1
tp32
sS'kernel_shape'
p33
(I1
I1
tp34
sg8
g14
sS'num_kernels'
p35
I21
sg24
S'CONV2D'
p36
sg27
(I1
I1
I21
tp37
sbsg26
Nsg28
Nsg31
(I1
I1
tp38
sg33
(I1
I1
tp39
sg8
g12
sg35
I58
sg24
g36
sg27
(I1
I1
I58
tp40
sbsg26
Nsg31
(I3
I2
tp41
sg8
g10
sg24
S'POOL2D'
p42
sg27
(I1
I1
I26
tp43
sS'pool_shape'
p44
(I8
I4
tp45
sbsg26
Nsg28
Nsg31
(I2
I1
tp46
sg33
(I10
I25
tp47
sg8
g6
sg35
I26
sg24
g36
sg27
(I10
I4
I26
tp48
sbsg24
S'INPUT'
p49
sg26
Nsg27
(I28
I28
I1
tp50
sbag10
ag12
ag14
ag16
ag18
ag20
ag22
asS'output_size'
p51
I10
sS'fullConnectionProb'
p52
F0.5
sS'input_shape'
p53
g50
sS'_Genotype__generatePoolGene'
p54
cnsga.CNN_Gene
generate2DPoolGene
p55
sS'_Genotype__generateConvGene'
p56
cnsga.CNN_Gene
generate2DConvGene
p57
sS'convolutionProb'
p58
F0.5
sS'is2D'
p59
I01
sb.