(insga.CNN_Gene
Genotype
p1
(dp2
S'poolingProb'
p3
F0.5
sS'genotype'
p4
(lp5
(insga.CNN_Gene
InputGene
p6
(dp7
S'prev_gene'
p8
NsS'next_gene'
p9
(insga.CNN_Gene
Conv2DGene
p10
(dp11
g9
(insga.CNN_Gene
Pool2DGene
p12
(dp13
g9
(insga.CNN_Gene
Conv2DGene
p14
(dp15
g9
(insga.CNN_Gene
Conv2DGene
p16
(dp17
g9
(insga.CNN_Gene
FullyConnectedGene
p18
(dp19
g9
(insga.CNN_Gene
FullyConnectedGene
p20
(dp21
g9
(insga.CNN_Gene
FullyConnectedGene
p22
(dp23
g9
(insga.CNN_Gene
FullyConnectedGene
p24
(dp25
g9
(insga.CNN_Gene
FullyConnectedGene
p26
(dp27
g9
(insga.CNN_Gene
OutputGene
p28
(dp29
g8
g26
sg9
NsS'type'
p30
S'OUTPUT'
p31
sS'tensor'
p32
NsS'dimension'
p33
I10
sbsg32
NsS'activation'
p34
Nsg8
g24
sg30
S'FULLYCONNECTED'
p35
sg33
I925
sS'size'
p36
I925
sbsg32
Nsg34
Nsg8
g22
sg30
g35
sg33
I336
sg36
I336
sbsg32
Nsg34
Nsg8
g20
sg30
g35
sg33
I741
sg36
I741
sbsg32
Nsg34
Nsg8
g18
sg30
g35
sg33
I576
sg36
I576
sbsg32
Nsg34
Nsg8
g16
sg30
g35
sg33
I714
sg36
I714
sbsg32
Nsg34
NsS'stride'
p37
(I1
I1
tp38
sS'kernel_shape'
p39
(I1
I1
tp40
sg8
g14
sS'num_kernels'
p41
I21
sg30
S'CONV2D'
p42
sg33
(I1
I1
I21
tp43
sbsg32
Nsg34
Nsg37
(I1
I1
tp44
sg39
(I1
I1
tp45
sg8
g12
sg41
I58
sg30
g42
sg33
(I1
I1
I58
tp46
sbsg32
Nsg37
(I3
I2
tp47
sg8
g10
sg30
S'POOL2D'
p48
sg33
(I1
I1
I26
tp49
sS'pool_shape'
p50
(I8
I4
tp51
sbsg32
Nsg34
Nsg37
(I2
I1
tp52
sg39
(I10
I25
tp53
sg8
g6
sg41
I26
sg30
g42
sg33
(I10
I4
I26
tp54
sbsg30
S'INPUT'
p55
sg32
Nsg33
(I28
I28
I1
tp56
sbag10
ag12
ag14
ag16
ag18
ag20
ag22
ag24
ag26
ag28
asS'output_size'
p57
I10
sS'fullConnectionProb'
p58
F0.5
sS'input_shape'
p59
g56
sS'_Genotype__generatePoolGene'
p60
cnsga.CNN_Gene
generate2DPoolGene
p61
sS'_Genotype__generateConvGene'
p62
cnsga.CNN_Gene
generate2DConvGene
p63
sS'convolutionProb'
p64
F0.5
sS'is2D'
p65
I01
sb.