(insga.CNN_Gene
Genotype
p1
(dp2
S'poolingProb'
p3
F0.5
sS'genotype'
p4
(lp5
(insga.CNN_Gene
InputGene
p6
(dp7
S'prev_gene'
p8
NsS'next_gene'
p9
(insga.CNN_Gene
Pool2DGene
p10
(dp11
g9
(insga.CNN_Gene
Pool2DGene
p12
(dp13
g9
(insga.CNN_Gene
Pool2DGene
p14
(dp15
g9
(insga.CNN_Gene
OutputGene
p16
(dp17
g8
g14
sg9
NsS'type'
p18
S'OUTPUT'
p19
sS'tensor'
p20
NsS'dimension'
p21
I10
sbsg20
NsS'stride'
p22
(I2
I3
tp23
sg8
g12
sg18
S'POOL2D'
p24
sg21
(I1
I2
I1
tp25
sS'pool_shape'
p26
(I2
I4
tp27
sbsg20
Nsg22
(I8
I2
tp28
sg8
g10
sg18
g24
sg21
(I3
I9
I1
tp29
sg26
(I6
I10
tp30
sbsg20
Nsg22
(I1
I1
tp31
sg8
g6
sg18
g24
sg21
(I27
I26
I1
tp32
sg26
(I2
I3
tp33
sbsg18
S'INPUT'
p34
sg20
Nsg21
(I28
I28
I1
tp35
sbag10
ag12
ag14
ag16
asS'output_size'
p36
I10
sS'fullConnectionProb'
p37
F0.5
sS'input_shape'
p38
g35
sS'_Genotype__generatePoolGene'
p39
cnsga.CNN_Gene
generate2DPoolGene
p40
sS'_Genotype__generateConvGene'
p41
cnsga.CNN_Gene
generate2DConvGene
p42
sS'convolutionProb'
p43
F0.5
sS'is2D'
p44
I01
sb.