(insga.CNN_Gene
Genotype
p1
(dp2
S'poolingProb'
p3
F0.5
sS'genotype'
p4
(lp5
(insga.CNN_Gene
InputGene
p6
(dp7
S'prev_gene'
p8
NsS'next_gene'
p9
(insga.CNN_Gene
Conv2DGene
p10
(dp11
g9
(insga.CNN_Gene
Pool2DGene
p12
(dp13
g9
(insga.CNN_Gene
Pool2DGene
p14
(dp15
g9
(insga.CNN_Gene
OutputGene
p16
(dp17
g8
g14
sg9
NsS'type'
p18
S'OUTPUT'
p19
sS'tensor'
p20
NsS'dimension'
p21
I10
sbsg20
NsS'stride'
p22
(I10
I5
tp23
sg8
g12
sg18
S'POOL2D'
p24
sg21
(I1
I1
I30
tp25
sS'pool_shape'
p26
(I17
I5
tp27
sbsg20
Nsg22
(I1
I1
tp28
sg8
g10
sg18
g24
sg21
(I19
I8
I30
tp29
sg26
(I2
I3
tp30
sbsg20
NsS'activation'
p31
Nsg22
(I1
I1
tp32
sS'kernel_shape'
p33
(I9
I19
tp34
sg8
g6
sS'num_kernels'
p35
I30
sg18
S'CONV2D'
p36
sg21
(I20
I10
I30
tp37
sbsg18
S'INPUT'
p38
sg20
Nsg21
(I28
I28
I1
tp39
sbag10
ag12
ag14
ag16
asS'output_size'
p40
I10
sS'fullConnectionProb'
p41
F0.5
sS'input_shape'
p42
g39
sS'_Genotype__generatePoolGene'
p43
cnsga.CNN_Gene
generate2DPoolGene
p44
sS'_Genotype__generateConvGene'
p45
cnsga.CNN_Gene
generate2DConvGene
p46
sS'convolutionProb'
p47
F0.5
sS'is2D'
p48
I01
sb.