(insga.CNN_Gene
Genotype
p1
(dp2
S'poolingProb'
p3
F0.5
sS'genotype'
p4
(lp5
(insga.CNN_Gene
InputGene
p6
(dp7
S'prev_gene'
p8
NsS'next_gene'
p9
(insga.CNN_Gene
Conv2DGene
p10
(dp11
g9
(insga.CNN_Gene
Pool2DGene
p12
(dp13
g9
(insga.CNN_Gene
Conv2DGene
p14
(dp15
g9
(insga.CNN_Gene
FullyConnectedGene
p16
(dp17
g9
(insga.CNN_Gene
OutputGene
p18
(dp19
g8
g16
sg9
NsS'type'
p20
S'OUTPUT'
p21
sS'tensor'
p22
NsS'dimension'
p23
I10
sbsg22
NsS'activation'
p24
Nsg8
g14
sg20
S'FULLYCONNECTED'
p25
sg23
I213
sS'size'
p26
I213
sbsg22
Nsg24
NsS'stride'
p27
(I1
I1
tp28
sS'kernel_shape'
p29
(I1
I1
tp30
sg8
g12
sS'num_kernels'
p31
I13
sg20
S'CONV2D'
p32
sg23
(I2
I1
I13
tp33
sbsg22
Nsg27
(I2
I1
tp34
sg8
g10
sg20
S'POOL2D'
p35
sg23
(I2
I1
I48
tp36
sS'pool_shape'
p37
(I3
I4
tp38
sbsg22
Nsg24
Nsg27
(I5
I1
tp39
sg29
(I6
I25
tp40
sg8
g6
sg31
I48
sg20
g32
sg23
(I5
I4
I48
tp41
sbsg20
S'INPUT'
p42
sg22
Nsg23
(I28
I28
I1
tp43
sbag10
ag12
ag14
ag16
ag18
asS'output_size'
p44
I10
sS'fullConnectionProb'
p45
F0.5
sS'input_shape'
p46
g43
sS'_Genotype__generatePoolGene'
p47
cnsga.CNN_Gene
generate2DPoolGene
p48
sS'_Genotype__generateConvGene'
p49
cnsga.CNN_Gene
generate2DConvGene
p50
sS'convolutionProb'
p51
F0.5
sS'is2D'
p52
I01
sb.