(insga.CNN_Gene
Genotype
p1
(dp2
S'poolingProb'
p3
F0.5
sS'genotype'
p4
(lp5
(insga.CNN_Gene
InputGene
p6
(dp7
S'prev_gene'
p8
NsS'next_gene'
p9
(insga.CNN_Gene
Conv2DGene
p10
(dp11
g9
(insga.CNN_Gene
Pool2DGene
p12
(dp13
g9
(insga.CNN_Gene
Conv2DGene
p14
(dp15
g9
(insga.CNN_Gene
Conv2DGene
p16
(dp17
g9
(insga.CNN_Gene
FullyConnectedGene
p18
(dp19
g9
(insga.CNN_Gene
FullyConnectedGene
p20
(dp21
g9
(insga.CNN_Gene
FullyConnectedGene
p22
(dp23
g9
(insga.CNN_Gene
FullyConnectedGene
p24
(dp25
g9
(insga.CNN_Gene
FullyConnectedGene
p26
(dp27
g9
(insga.CNN_Gene
FullyConnectedGene
p28
(dp29
g9
(insga.CNN_Gene
OutputGene
p30
(dp31
g8
g28
sg9
NsS'type'
p32
S'OUTPUT'
p33
sS'tensor'
p34
NsS'dimension'
p35
I10
sbsg34
NsS'activation'
p36
Nsg8
g26
sg32
S'FULLYCONNECTED'
p37
sg35
I683
sS'size'
p38
I683
sbsg34
Nsg36
Nsg8
g24
sg32
g37
sg35
I925
sg38
I925
sbsg34
Nsg36
Nsg8
g22
sg32
g37
sg35
I336
sg38
I336
sbsg34
Nsg36
Nsg8
g20
sg32
g37
sg35
I741
sg38
I741
sbsg34
Nsg36
Nsg8
g18
sg32
g37
sg35
I576
sg38
I576
sbsg34
Nsg36
Nsg8
g16
sg32
g37
sg35
I714
sg38
I714
sbsg34
Nsg36
NsS'stride'
p39
(I1
I1
tp40
sS'kernel_shape'
p41
(I1
I1
tp42
sg8
g14
sS'num_kernels'
p43
I21
sg32
S'CONV2D'
p44
sg35
(I1
I1
I21
tp45
sbsg34
Nsg36
Nsg39
(I1
I1
tp46
sg41
(I1
I1
tp47
sg8
g12
sg43
I58
sg32
g44
sg35
(I1
I1
I58
tp48
sbsg34
Nsg39
(I3
I2
tp49
sg8
g10
sg32
S'POOL2D'
p50
sg35
(I1
I1
I26
tp51
sS'pool_shape'
p52
(I8
I4
tp53
sbsg34
Nsg36
Nsg39
(I2
I1
tp54
sg41
(I10
I25
tp55
sg8
g6
sg43
I26
sg32
g44
sg35
(I10
I4
I26
tp56
sbsg32
S'INPUT'
p57
sg34
Nsg35
(I28
I28
I1
tp58
sbag10
ag12
ag14
ag16
ag18
ag20
ag22
ag24
ag26
ag28
ag30
asS'output_size'
p59
I10
sS'fullConnectionProb'
p60
F0.5
sS'input_shape'
p61
g58
sS'_Genotype__generatePoolGene'
p62
cnsga.CNN_Gene
generate2DPoolGene
p63
sS'_Genotype__generateConvGene'
p64
cnsga.CNN_Gene
generate2DConvGene
p65
sS'convolutionProb'
p66
F0.5
sS'is2D'
p67
I01
sb.