(insga.CNN_Gene
Genotype
p1
(dp2
S'poolingProb'
p3
F0.5
sS'genotype'
p4
(lp5
(insga.CNN_Gene
InputGene
p6
(dp7
S'prev_gene'
p8
NsS'next_gene'
p9
(insga.CNN_Gene
Conv2DGene
p10
(dp11
g9
(insga.CNN_Gene
Conv2DGene
p12
(dp13
g9
(insga.CNN_Gene
Conv2DGene
p14
(dp15
g9
(insga.CNN_Gene
FullyConnectedGene
p16
(dp17
g9
(insga.CNN_Gene
OutputGene
p18
(dp19
g8
g16
sg9
NsS'type'
p20
S'OUTPUT'
p21
sS'tensor'
p22
NsS'dimension'
p23
I10
sbsg22
NsS'activation'
p24
Nsg8
g14
sg20
S'FULLYCONNECTED'
p25
sg23
I559
sS'size'
p26
I559
sbsg22
Nsg24
NsS'stride'
p27
(I1
I2
tp28
sS'kernel_shape'
p29
(I1
I2
tp30
sg8
g12
sS'num_kernels'
p31
I44
sg20
S'CONV2D'
p32
sg23
(I1
I1
I44
tp33
sbsg22
Nsg24
Nsg27
(I1
I1
tp34
sg29
(I7
I1
tp35
sg8
g10
sg31
I67
sg20
g32
sg23
(I1
I2
I67
tp36
sbsg22
Nsg24
Nsg27
(I1
I7
tp37
sg29
(I22
I17
tp38
sg8
g6
sg31
I80
sg20
g32
sg23
(I7
I2
I80
tp39
sbsg20
S'INPUT'
p40
sg22
Nsg23
(I28
I28
I1
tp41
sbag10
ag12
ag14
ag16
ag18
asS'output_size'
p42
I10
sS'fullConnectionProb'
p43
F0.5
sS'input_shape'
p44
g41
sS'_Genotype__generatePoolGene'
p45
cnsga.CNN_Gene
generate2DPoolGene
p46
sS'_Genotype__generateConvGene'
p47
cnsga.CNN_Gene
generate2DConvGene
p48
sS'convolutionProb'
p49
F0.5
sS'is2D'
p50
I01
sb.