(insga.CNN_Gene
Genotype
p1
(dp2
S'poolingProb'
p3
F0.5
sS'genotype'
p4
(lp5
(insga.CNN_Gene
InputGene
p6
(dp7
S'prev_gene'
p8
NsS'next_gene'
p9
(insga.CNN_Gene
Conv2DGene
p10
(dp11
g9
(insga.CNN_Gene
Conv2DGene
p12
(dp13
g9
(insga.CNN_Gene
OutputGene
p14
(dp15
g8
g12
sg9
NsS'type'
p16
S'OUTPUT'
p17
sS'tensor'
p18
NsS'dimension'
p19
I10
sbsg18
NsS'activation'
p20
NsS'stride'
p21
(I1
I2
tp22
sS'kernel_shape'
p23
(I2
I7
tp24
sg8
g10
sS'num_kernels'
p25
I6
sg16
S'CONV2D'
p26
sg19
(I7
I1
I6
tp27
sbsg18
Nsg20
Nsg21
(I2
I2
tp28
sg23
(I14
I16
tp29
sg8
g6
sg25
I52
sg16
g26
sg19
(I8
I7
I52
tp30
sbsg16
S'INPUT'
p31
sg18
Nsg19
(I28
I28
I1
tp32
sbag10
ag12
ag14
asS'output_size'
p33
I10
sS'fullConnectionProb'
p34
F0.5
sS'input_shape'
p35
g32
sS'_Genotype__generatePoolGene'
p36
cnsga.CNN_Gene
generate2DPoolGene
p37
sS'_Genotype__generateConvGene'
p38
cnsga.CNN_Gene
generate2DConvGene
p39
sS'convolutionProb'
p40
F0.5
sS'is2D'
p41
I01
sb.