(insga.CNN_Gene
Genotype
p1
(dp2
S'poolingProb'
p3
F0.5
sS'genotype'
p4
(lp5
(insga.CNN_Gene
InputGene
p6
(dp7
S'prev_gene'
p8
NsS'next_gene'
p9
(insga.CNN_Gene
Conv2DGene
p10
(dp11
g9
(insga.CNN_Gene
FullyConnectedGene
p12
(dp13
g9
(insga.CNN_Gene
FullyConnectedGene
p14
(dp15
g9
(insga.CNN_Gene
OutputGene
p16
(dp17
g8
g14
sg9
NsS'type'
p18
S'OUTPUT'
p19
sS'tensor'
p20
NsS'dimension'
p21
I10
sbsg20
NsS'activation'
p22
Nsg8
g12
sg18
S'FULLYCONNECTED'
p23
sg21
I962
sS'size'
p24
I962
sbsg20
Nsg22
Nsg8
g10
sg18
g23
sg21
I760
sg24
I760
sbsg20
Nsg22
NsS'stride'
p25
(I5
I12
tp26
sS'kernel_shape'
p27
(I17
I18
tp28
sg8
g6
sS'num_kernels'
p29
I8
sg18
S'CONV2D'
p30
sg21
(I3
I1
I8
tp31
sbsg18
S'INPUT'
p32
sg20
Nsg21
(I28
I28
I1
tp33
sbag10
ag12
ag14
ag16
asS'output_size'
p34
I10
sS'fullConnectionProb'
p35
F0.5
sS'input_shape'
p36
g33
sS'_Genotype__generatePoolGene'
p37
cnsga.CNN_Gene
generate2DPoolGene
p38
sS'_Genotype__generateConvGene'
p39
cnsga.CNN_Gene
generate2DConvGene
p40
sS'convolutionProb'
p41
F0.5
sS'is2D'
p42
I01
sb.