(insga.CNN_Gene
Genotype
p1
(dp2
S'poolingProb'
p3
F0.5
sS'genotype'
p4
(lp5
(insga.CNN_Gene
InputGene
p6
(dp7
S'prev_gene'
p8
NsS'next_gene'
p9
(insga.CNN_Gene
Conv2DGene
p10
(dp11
g9
(insga.CNN_Gene
Pool2DGene
p12
(dp13
g9
(insga.CNN_Gene
FullyConnectedGene
p14
(dp15
g9
(insga.CNN_Gene
OutputGene
p16
(dp17
g8
g14
sg9
NsS'type'
p18
S'OUTPUT'
p19
sS'tensor'
p20
NsS'dimension'
p21
I10
sbsg20
NsS'activation'
p22
Nsg8
g12
sg18
S'FULLYCONNECTED'
p23
sg21
I213
sS'size'
p24
I213
sbsg20
NsS'stride'
p25
(I2
I3
tp26
sg8
g10
sg18
S'POOL2D'
p27
sg21
(I4
I2
I52
tp28
sS'pool_shape'
p29
(I2
I4
tp30
sbsg20
Nsg22
Nsg25
(I2
I2
tp31
sS'kernel_shape'
p32
(I14
I16
tp33
sg8
g6
sS'num_kernels'
p34
I52
sg18
S'CONV2D'
p35
sg21
(I8
I7
I52
tp36
sbsg18
S'INPUT'
p37
sg20
Nsg21
(I28
I28
I1
tp38
sbag10
ag12
ag14
ag16
asS'output_size'
p39
I10
sS'fullConnectionProb'
p40
F0.5
sS'input_shape'
p41
g38
sS'_Genotype__generatePoolGene'
p42
cnsga.CNN_Gene
generate2DPoolGene
p43
sS'_Genotype__generateConvGene'
p44
cnsga.CNN_Gene
generate2DConvGene
p45
sS'convolutionProb'
p46
F0.5
sS'is2D'
p47
I01
sb.