(insga.CNN_Gene
Genotype
p1
(dp2
S'poolingProb'
p3
F0.5
sS'genotype'
p4
(lp5
(insga.CNN_Gene
InputGene
p6
(dp7
S'prev_gene'
p8
NsS'next_gene'
p9
(insga.CNN_Gene
Pool2DGene
p10
(dp11
g9
(insga.CNN_Gene
OutputGene
p12
(dp13
g8
g10
sg9
NsS'type'
p14
S'OUTPUT'
p15
sS'tensor'
p16
NsS'dimension'
p17
I10
sbsg16
NsS'stride'
p18
(I10
I5
tp19
sg8
g6
sg14
S'POOL2D'
p20
sg17
(I1
I3
I1
tp21
sS'pool_shape'
p22
(I21
I17
tp23
sbsg14
S'INPUT'
p24
sg16
Nsg17
(I28
I28
I1
tp25
sbag10
ag12
asS'output_size'
p26
I10
sS'fullConnectionProb'
p27
F0.5
sS'input_shape'
p28
g25
sS'_Genotype__generatePoolGene'
p29
cnsga.CNN_Gene
generate2DPoolGene
p30
sS'_Genotype__generateConvGene'
p31
cnsga.CNN_Gene
generate2DConvGene
p32
sS'convolutionProb'
p33
F0.5
sS'is2D'
p34
I01
sb.