(insga.CNN_Gene
Genotype
p1
(dp2
S'poolingProb'
p3
F0.5
sS'genotype'
p4
(lp5
(insga.CNN_Gene
InputGene
p6
(dp7
S'prev_gene'
p8
NsS'next_gene'
p9
(insga.CNN_Gene
Conv2DGene
p10
(dp11
g9
(insga.CNN_Gene
Conv2DGene
p12
(dp13
g9
(insga.CNN_Gene
FullyConnectedGene
p14
(dp15
g9
(insga.CNN_Gene
FullyConnectedGene
p16
(dp17
g9
(insga.CNN_Gene
FullyConnectedGene
p18
(dp19
g9
(insga.CNN_Gene
OutputGene
p20
(dp21
g8
g18
sg9
NsS'type'
p22
S'OUTPUT'
p23
sS'tensor'
p24
NsS'dimension'
p25
I10
sbsg24
NsS'activation'
p26
Nsg8
g16
sg22
S'FULLYCONNECTED'
p27
sg25
I32
sS'size'
p28
I32
sbsg24
Nsg26
Nsg8
g14
sg22
g27
sg25
I550
sg28
I550
sbsg24
Nsg26
Nsg8
g12
sg22
g27
sg25
I883
sg28
I883
sbsg24
Nsg26
NsS'stride'
p29
(I1
I3
tp30
sS'kernel_shape'
p31
(I4
I4
tp32
sg8
g10
sS'num_kernels'
p33
I69
sg22
S'CONV2D'
p34
sg25
(I1
I7
I69
tp35
sbsg24
Nsg26
Nsg29
(I5
I1
tp36
sg31
(I11
I5
tp37
sg8
g6
sg33
I14
sg22
g34
sg25
(I4
I24
I14
tp38
sbsg22
S'INPUT'
p39
sg24
Nsg25
(I28
I28
I1
tp40
sbag10
ag12
ag14
ag16
ag18
ag20
asS'output_size'
p41
I10
sS'fullConnectionProb'
p42
F0.5
sS'input_shape'
p43
g40
sS'_Genotype__generatePoolGene'
p44
cnsga.CNN_Gene
generate2DPoolGene
p45
sS'_Genotype__generateConvGene'
p46
cnsga.CNN_Gene
generate2DConvGene
p47
sS'convolutionProb'
p48
F0.5
sS'is2D'
p49
I01
sb.