(insga.CNN_Gene
Genotype
p1
(dp2
S'poolingProb'
p3
F0.5
sS'genotype'
p4
(lp5
(insga.CNN_Gene
InputGene
p6
(dp7
S'prev_gene'
p8
NsS'next_gene'
p9
(insga.CNN_Gene
Conv2DGene
p10
(dp11
g9
(insga.CNN_Gene
OutputGene
p12
(dp13
g8
g10
sg9
NsS'type'
p14
S'OUTPUT'
p15
sS'tensor'
p16
NsS'dimension'
p17
I10
sbsg16
NsS'activation'
p18
NsS'stride'
p19
(I2
I2
tp20
sS'kernel_shape'
p21
(I3
I2
tp22
sg8
g6
sS'num_kernels'
p23
I52
sg14
S'CONV2D'
p24
sg17
(I13
I14
I52
tp25
sbsg14
S'INPUT'
p26
sg16
Nsg17
(I28
I28
I1
tp27
sbag10
ag12
asS'output_size'
p28
I10
sS'fullConnectionProb'
p29
F0.5
sS'input_shape'
p30
g27
sS'_Genotype__generatePoolGene'
p31
cnsga.CNN_Gene
generate2DPoolGene
p32
sS'_Genotype__generateConvGene'
p33
cnsga.CNN_Gene
generate2DConvGene
p34
sS'convolutionProb'
p35
F0.5
sS'is2D'
p36
I01
sb.