(insga.CNN_Gene
Genotype
p1
(dp2
S'poolingProb'
p3
F0.5
sS'genotype'
p4
(lp5
(insga.CNN_Gene
InputGene
p6
(dp7
S'prev_gene'
p8
NsS'next_gene'
p9
(insga.CNN_Gene
Pool2DGene
p10
(dp11
g9
(insga.CNN_Gene
Conv2DGene
p12
(dp13
g9
(insga.CNN_Gene
Conv2DGene
p14
(dp15
g9
(insga.CNN_Gene
Pool2DGene
p16
(dp17
g9
(insga.CNN_Gene
OutputGene
p18
(dp19
g8
g16
sg9
NsS'type'
p20
S'OUTPUT'
p21
sS'tensor'
p22
NsS'dimension'
p23
I10
sbsg22
NsS'stride'
p24
(I12
I1
tp25
sg8
g14
sg20
S'POOL2D'
p26
sg23
(I1
I3
I18
tp27
sS'pool_shape'
p28
(I15
I2
tp29
sbsg22
NsS'activation'
p30
Nsg24
(I1
I3
tp31
sS'kernel_shape'
p32
(I11
I3
tp33
sg8
g12
sS'num_kernels'
p34
I18
sg20
S'CONV2D'
p35
sg23
(I16
I4
I18
tp36
sbsg22
Nsg30
Nsg24
(I1
I2
tp37
sg32
(I2
I1
tp38
sg8
g10
sg34
I75
sg20
g35
sg23
(I26
I13
I75
tp39
sbsg22
Nsg24
(I1
I1
tp40
sg8
g6
sg20
g26
sg23
(I27
I26
I1
tp41
sg28
(I2
I3
tp42
sbsg20
S'INPUT'
p43
sg22
Nsg23
(I28
I28
I1
tp44
sbag10
ag12
ag14
ag16
ag18
asS'output_size'
p45
I10
sS'fullConnectionProb'
p46
F0.5
sS'input_shape'
p47
g44
sS'_Genotype__generatePoolGene'
p48
cnsga.CNN_Gene
generate2DPoolGene
p49
sS'_Genotype__generateConvGene'
p50
cnsga.CNN_Gene
generate2DConvGene
p51
sS'convolutionProb'
p52
F0.5
sS'is2D'
p53
I01
sb.