(insga.CNN_Gene
Genotype
p1
(dp2
S'poolingProb'
p3
F0.5
sS'genotype'
p4
(lp5
(insga.CNN_Gene
InputGene
p6
(dp7
S'prev_gene'
p8
NsS'next_gene'
p9
(insga.CNN_Gene
FullyConnectedGene
p10
(dp11
g9
(insga.CNN_Gene
OutputGene
p12
(dp13
g8
g10
sg9
NsS'type'
p14
S'OUTPUT'
p15
sS'tensor'
p16
NsS'dimension'
p17
I10
sbsg16
NsS'activation'
p18
Nsg8
g6
sg14
S'FULLYCONNECTED'
p19
sg17
I533
sS'size'
p20
I533
sbsg14
S'INPUT'
p21
sg16
Nsg17
(I28
I28
I1
tp22
sbag10
ag12
asS'output_size'
p23
I10
sS'fullConnectionProb'
p24
F0.5
sS'input_shape'
p25
g22
sS'_Genotype__generatePoolGene'
p26
cnsga.CNN_Gene
generate2DPoolGene
p27
sS'_Genotype__generateConvGene'
p28
cnsga.CNN_Gene
generate2DConvGene
p29
sS'convolutionProb'
p30
F0.5
sS'is2D'
p31
I01
sb.