(insga.CNN_Gene
Genotype
p1
(dp2
S'poolingProb'
p3
F0.5
sS'genotype'
p4
(lp5
(insga.CNN_Gene
InputGene
p6
(dp7
S'prev_gene'
p8
NsS'next_gene'
p9
(insga.CNN_Gene
OutputGene
p10
(dp11
g8
g6
sg9
NsS'type'
p12
S'OUTPUT'
p13
sS'tensor'
p14
NsS'dimension'
p15
I10
sbsg12
S'INPUT'
p16
sg14
Nsg15
(I28
I28
I1
tp17
sbag10
asS'output_size'
p18
I10
sS'fullConnectionProb'
p19
F0.5
sS'input_shape'
p20
g17
sS'_Genotype__generatePoolGene'
p21
cnsga.CNN_Gene
generate2DPoolGene
p22
sS'_Genotype__generateConvGene'
p23
cnsga.CNN_Gene
generate2DConvGene
p24
sS'convolutionProb'
p25
F0.5
sS'is2D'
p26
I01
sb.