(insga.CNN_Gene
Genotype
p1
(dp2
S'poolingProb'
p3
F0.5
sS'genotype'
p4
(lp5
(insga.CNN_Gene
InputGene
p6
(dp7
S'prev_gene'
p8
NsS'next_gene'
p9
(insga.CNN_Gene
Conv2DGene
p10
(dp11
g9
(insga.CNN_Gene
Conv2DGene
p12
(dp13
g9
(insga.CNN_Gene
FullyConnectedGene
p14
(dp15
g9
(insga.CNN_Gene
OutputGene
p16
(dp17
g8
g14
sg9
NsS'type'
p18
S'OUTPUT'
p19
sS'tensor'
p20
NsS'dimension'
p21
I10
sbsg20
NsS'activation'
p22
Nsg8
g12
sg18
S'FULLYCONNECTED'
p23
sg21
I883
sS'size'
p24
I883
sbsg20
Nsg22
NsS'stride'
p25
(I1
I3
tp26
sS'kernel_shape'
p27
(I4
I4
tp28
sg8
g10
sS'num_kernels'
p29
I69
sg18
S'CONV2D'
p30
sg21
(I1
I7
I69
tp31
sbsg20
Nsg22
Nsg25
(I5
I1
tp32
sg27
(I11
I5
tp33
sg8
g6
sg29
I14
sg18
g30
sg21
(I4
I24
I14
tp34
sbsg18
S'INPUT'
p35
sg20
Nsg21
(I28
I28
I1
tp36
sbag10
ag12
ag14
ag16
asS'output_size'
p37
I10
sS'fullConnectionProb'
p38
F0.5
sS'input_shape'
p39
g36
sS'_Genotype__generatePoolGene'
p40
cnsga.CNN_Gene
generate2DPoolGene
p41
sS'_Genotype__generateConvGene'
p42
cnsga.CNN_Gene
generate2DConvGene
p43
sS'convolutionProb'
p44
F0.5
sS'is2D'
p45
I01
sb.