(insga.CNN_Gene
Genotype
p1
(dp2
S'poolingProb'
p3
F0.5
sS'genotype'
p4
(lp5
(insga.CNN_Gene
InputGene
p6
(dp7
S'prev_gene'
p8
NsS'next_gene'
p9
(insga.CNN_Gene
FullyConnectedGene
p10
(dp11
g9
(insga.CNN_Gene
FullyConnectedGene
p12
(dp13
g9
(insga.CNN_Gene
FullyConnectedGene
p14
(dp15
g9
(insga.CNN_Gene
FullyConnectedGene
p16
(dp17
g9
(insga.CNN_Gene
OutputGene
p18
(dp19
g8
g16
sg9
NsS'type'
p20
S'OUTPUT'
p21
sS'tensor'
p22
NsS'dimension'
p23
I10
sbsg22
NsS'activation'
p24
Nsg8
g14
sg20
S'FULLYCONNECTED'
p25
sg23
I434
sS'size'
p26
I434
sbsg22
Nsg24
Nsg8
g12
sg20
g25
sg23
I93
sg26
I93
sbsg22
Nsg24
Nsg8
g10
sg20
g25
sg23
I735
sg26
I735
sbsg22
Nsg24
Nsg8
g6
sg20
g25
sg23
I927
sg26
I927
sbsg20
S'INPUT'
p27
sg22
Nsg23
(I28
I28
I1
tp28
sbag10
ag12
ag14
ag16
ag18
asS'output_size'
p29
I10
sS'fullConnectionProb'
p30
F0.5
sS'input_shape'
p31
g28
sS'_Genotype__generatePoolGene'
p32
cnsga.CNN_Gene
generate2DPoolGene
p33
sS'_Genotype__generateConvGene'
p34
cnsga.CNN_Gene
generate2DConvGene
p35
sS'convolutionProb'
p36
F0.5
sS'is2D'
p37
I01
sb.