(insga.CNN_Gene
Genotype
p1
(dp2
S'poolingProb'
p3
F0.5
sS'genotype'
p4
(lp5
(insga.CNN_Gene
InputGene
p6
(dp7
S'prev_gene'
p8
NsS'next_gene'
p9
(insga.CNN_Gene
Conv2DGene
p10
(dp11
g9
(insga.CNN_Gene
Pool2DGene
p12
(dp13
g9
(insga.CNN_Gene
Conv2DGene
p14
(dp15
g9
(insga.CNN_Gene
Conv2DGene
p16
(dp17
g9
(insga.CNN_Gene
FullyConnectedGene
p18
(dp19
g9
(insga.CNN_Gene
OutputGene
p20
(dp21
g8
g18
sg9
NsS'type'
p22
S'OUTPUT'
p23
sS'tensor'
p24
NsS'dimension'
p25
I10
sbsg24
NsS'activation'
p26
Nsg8
g16
sg22
S'FULLYCONNECTED'
p27
sg25
I868
sS'size'
p28
I868
sbsg24
Nsg26
NsS'stride'
p29
(I1
I1
tp30
sS'kernel_shape'
p31
(I1
I1
tp32
sg8
g14
sS'num_kernels'
p33
I25
sg22
S'CONV2D'
p34
sg25
(I1
I1
I25
tp35
sbsg24
Nsg26
Nsg29
(I1
I2
tp36
sg31
(I1
I3
tp37
sg8
g12
sg33
I24
sg22
g34
sg25
(I1
I1
I24
tp38
sbsg24
Nsg29
(I1
I3
tp39
sg8
g10
sg22
S'POOL2D'
p40
sg25
(I1
I3
I90
tp41
sS'pool_shape'
p42
(I8
I21
tp43
sbsg24
Nsg26
Nsg29
(I3
I1
tp44
sg31
(I7
I1
tp45
sg8
g6
sg33
I90
sg22
g34
sg25
(I8
I28
I90
tp46
sbsg22
S'INPUT'
p47
sg24
Nsg25
(I28
I28
I1
tp48
sbag10
ag12
ag14
ag16
ag18
ag20
asS'output_size'
p49
I10
sS'fullConnectionProb'
p50
F0.5
sS'input_shape'
p51
g48
sS'_Genotype__generatePoolGene'
p52
cnsga.CNN_Gene
generate2DPoolGene
p53
sS'_Genotype__generateConvGene'
p54
cnsga.CNN_Gene
generate2DConvGene
p55
sS'convolutionProb'
p56
F0.5
sS'is2D'
p57
I01
sb.