(insga.CNN_Gene
Genotype
p1
(dp2
S'poolingProb'
p3
F0.5
sS'genotype'
p4
(lp5
(insga.CNN_Gene
InputGene
p6
(dp7
S'prev_gene'
p8
NsS'next_gene'
p9
(insga.CNN_Gene
FullyConnectedGene
p10
(dp11
g9
(insga.CNN_Gene
FullyConnectedGene
p12
(dp13
g9
(insga.CNN_Gene
FullyConnectedGene
p14
(dp15
g9
(insga.CNN_Gene
FullyConnectedGene
p16
(dp17
g9
(insga.CNN_Gene
FullyConnectedGene
p18
(dp19
g9
(insga.CNN_Gene
OutputGene
p20
(dp21
g8
g18
sg9
NsS'type'
p22
S'OUTPUT'
p23
sS'tensor'
p24
NsS'dimension'
p25
I10
sbsg24
NsS'activation'
p26
Nsg8
g16
sg22
S'FULLYCONNECTED'
p27
sg25
I319
sS'size'
p28
I319
sbsg24
Nsg26
Nsg8
g14
sg22
g27
sg25
I884
sg28
I884
sbsg24
Nsg26
Nsg8
g12
sg22
g27
sg25
I10
sg28
I10
sbsg24
Nsg26
Nsg8
g10
sg22
g27
sg25
I831
sg28
I831
sbsg24
Nsg26
Nsg8
g6
sg22
g27
sg25
I340
sg28
I340
sbsg22
S'INPUT'
p29
sg24
Nsg25
(I28
I28
I1
tp30
sbag10
ag12
ag14
ag16
ag18
ag20
asS'output_size'
p31
I10
sS'fullConnectionProb'
p32
F0.5
sS'input_shape'
p33
g30
sS'_Genotype__generatePoolGene'
p34
cnsga.CNN_Gene
generate2DPoolGene
p35
sS'_Genotype__generateConvGene'
p36
cnsga.CNN_Gene
generate2DConvGene
p37
sS'convolutionProb'
p38
F0.5
sS'is2D'
p39
I01
sb.