(insga.CNN_Gene
Genotype
p1
(dp2
S'poolingProb'
p3
F0.5
sS'genotype'
p4
(lp5
(insga.CNN_Gene
InputGene
p6
(dp7
S'prev_gene'
p8
NsS'next_gene'
p9
(insga.CNN_Gene
Pool2DGene
p10
(dp11
g9
(insga.CNN_Gene
Pool2DGene
p12
(dp13
g9
(insga.CNN_Gene
OutputGene
p14
(dp15
g8
g12
sg9
NsS'type'
p16
S'OUTPUT'
p17
sS'tensor'
p18
NsS'dimension'
p19
I10
sbsg18
NsS'stride'
p20
(I2
I3
tp21
sg8
g10
sg16
S'POOL2D'
p22
sg19
(I1
I1
I1
tp23
sS'pool_shape'
p24
(I2
I3
tp25
sbsg18
Nsg20
(I10
I5
tp26
sg8
g6
sg16
g22
sg19
(I3
I4
I1
tp27
sg24
(I2
I13
tp28
sbsg16
S'INPUT'
p29
sg18
Nsg19
(I28
I28
I1
tp30
sbag10
ag12
ag14
asS'output_size'
p31
I10
sS'fullConnectionProb'
p32
F0.5
sS'input_shape'
p33
g30
sS'_Genotype__generatePoolGene'
p34
cnsga.CNN_Gene
generate2DPoolGene
p35
sS'_Genotype__generateConvGene'
p36
cnsga.CNN_Gene
generate2DConvGene
p37
sS'convolutionProb'
p38
F0.5
sS'is2D'
p39
I01
sb.